; Function Attrs: nounwind uwtable
define i32 @arkLsMPSetup(ptr noundef %0) #0 {
  %2 = icmp eq ptr %0, null
  br i1 %2, label %3, label %4

3:                                                ; preds = %1
  tail call void (ptr, i32, i32, ptr, ptr, ptr, ...) @arkProcessError(ptr noundef null, i32 noundef -1, i32 noundef 4086, ptr noundef nonnull @__func__.arkLsMPSetup, ptr noundef nonnull @.str, ptr noundef nonnull @.str.63) #13
  br label %arkLs_AccessARKODEMassMem.exit.thread

4:                                                ; preds = %1
  %5 = getelementptr inbounds nuw i8, ptr %0, i64 536
  %6 = load ptr, ptr %5, align 8, !tbaa !75
  %7 = tail call ptr %6(ptr noundef nonnull %0) #13
  %8 = icmp eq ptr %7, null
  br i1 %8, label %9, label %arkLs_AccessARKODEMassMem.exit

9:                                                ; preds = %4
  tail call void (ptr, i32, i32, ptr, ptr, ptr, ...) @arkProcessError(ptr noundef nonnull %0, i32 noundef -6, i32 noundef 4094, ptr noundef nonnull @__func__.arkLsMPSetup, ptr noundef nonnull @.str, ptr noundef nonnull @.str.65) #13
  br label %arkLs_AccessARKODEMassMem.exit.thread

arkLs_AccessARKODEMassMem.exit:                   ; preds = %4
  %10 = getelementptr inbounds nuw i8, ptr %7, i64 56
  %11 = load i32, ptr %10, align 8, !tbaa !109
  %.not5 = icmp eq i32 %11, 0
  br i1 %.not5, label %12, label %15

12:                                               ; preds = %arkLs_AccessARKODEMassMem.exit
  %13 = getelementptr inbounds nuw i8, ptr %7, i64 112
  %14 = load i64, ptr %13, align 8, !tbaa !151
  %.not6 = icmp eq i64 %14, 0
  br i1 %.not6, label %15, label %arkLs_AccessARKODEMassMem.exit.thread

15:                                               ; preds = %12, %arkLs_AccessARKODEMassMem.exit
  %16 = getelementptr inbounds nuw i8, ptr %7, i64 168
  %17 = load ptr, ptr %16, align 8, !tbaa !120
  %18 = getelementptr inbounds nuw i8, ptr %0, i64 752
  %19 = load double, ptr %18, align 8, !tbaa !130
  %20 = getelementptr inbounds nuw i8, ptr %7, i64 192
  %21 = load ptr, ptr %20, align 8, !tbaa !110
  %22 = tail call i32 %17(double noundef %19, ptr noundef %21) #13
  %23 = getelementptr inbounds nuw i8, ptr %7, i64 112
  %24 = load i64, ptr %23, align 8, !tbaa !151
  %25 = add nsw i64 %24, 1
  store i64 %25, ptr %23, align 8, !tbaa !151
  br label %arkLs_AccessARKODEMassMem.exit.thread

arkLs_AccessARKODEMassMem.exit.thread:            ; preds = %9, %3, %12, %15
  %.0 = phi i32 [ %22, %15 ], [ 0, %12 ], [ -6, %9 ], [ -1, %3 ]
  ret i32 %.0
}